target datalayout = "e-m:e-p270:32:32-p271:32:32-p272:64:64-i64:64-i128:128-f80:128-n8:16:32:64-S128"
target triple = "x86_64-pc-linux-gnu"

@char_range_s = internal constant [21 x i16] [i16 10, i16 9, i16 14, i16 32, i16 33, i16 160, i16 161, i16 5760, i16 5761, i16 8192, i16 8203, i16 8232, i16 8234, i16 8239, i16 8240, i16 8287, i16 8288, i16 12288, i16 12289, i16 -257, i16 -256], align 16

; Function Attrs: nounwind uwtable
define dso_local i32 @lre_is_space(i32 noundef %0) #0 {
  %2 = alloca i32, align 4
  %3 = alloca i32, align 4
  %4 = alloca i32, align 4
  %5 = alloca i32, align 4
  %6 = alloca i32, align 4
  %7 = alloca i32, align 4
  store i32 %0, ptr %3, align 4
  store i32 10, ptr %5, align 4
  store i32 0, ptr %4, align 4
  br label %8

8:                                                ; preds = %37, %1
  %9 = load i32, ptr %4, align 4
  %10 = load i32, ptr %5, align 4
  %11 = icmp slt i32 %9, %10
  br i1 %11, label %12, label %40

12:                                               ; preds = %8
  %13 = load i32, ptr %4, align 4
  %14 = mul i32 2, %13
  %15 = add i32 %14, 1
  %16 = sext i32 %15 to i64
  %17 = getelementptr [21 x i16], ptr @char_range_s, i64 0, i64 %16
  %18 = load i16, ptr %17, align 2
  %19 = zext i16 %18 to i32
  store i32 %19, ptr %6, align 4
  %20 = load i32, ptr %3, align 4
  %21 = load i32, ptr %6, align 4
  %22 = icmp slt i32 %20, %21
  br i1 %22, label %23, label %24

23:                                               ; preds = %12
  store i32 0, ptr %2, align 4
  br label %41

24:                                               ; preds = %12
  %25 = load i32, ptr %4, align 4
  %26 = mul i32 2, %25
  %27 = add i32 %26, 2
  %28 = sext i32 %27 to i64
  %29 = getelementptr [21 x i16], ptr @char_range_s, i64 0, i64 %28
  %30 = load i16, ptr %29, align 2
  %31 = zext i16 %30 to i32
  store i32 %31, ptr %7, align 4
  %32 = load i32, ptr %3, align 4
  %33 = load i32, ptr %7, align 4
  %34 = icmp slt i32 %32, %33
  br i1 %34, label %35, label %36

35:                                               ; preds = %24
  store i32 1, ptr %2, align 4
  br label %41

36:                                               ; preds = %24
  br label %37

37:                                               ; preds = %36
  %38 = load i32, ptr %4, align 4
  %39 = add i32 %38, 1
  store i32 %39, ptr %4, align 4
  br label %8, !llvm.loop !7

40:                                               ; preds = %8
  store i32 0, ptr %2, align 4
  br label %41

41:                                               ; preds = %40, %35, %23
  %42 = load i32, ptr %2, align 4
  ret i32 %42
}