; Function Attrs: nofree norecurse nosync nounwind memory(none) uwtable
define dso_local noundef i32 @lre_is_space(i32 noundef %0) local_unnamed_addr #0 {
  br label %3

2:                                                ; preds = %10
  %indvars.iv.next = add nuw nsw i64 %indvars.iv, 1
  %exitcond.not = icmp eq i64 %indvars.iv.next, 10
  br i1 %exitcond.not, label %16, label %3, !llvm.loop !7

3:                                                ; preds = %1, %2
  %indvars.iv = phi i64 [ 0, %1 ], [ %indvars.iv.next, %2 ]
  %4 = shl nuw nsw i64 %indvars.iv, 1
  %5 = or disjoint i64 %4, 1
  %6 = getelementptr [21 x i16], ptr @char_range_s, i64 0, i64 %5
  %7 = load i16, ptr %6, align 2
  %8 = zext i16 %7 to i32
  %9 = icmp sgt i32 %8, %0
  br i1 %9, label %16, label %10

10:                                               ; preds = %3
  %11 = add nuw nsw i64 %4, 2
  %12 = getelementptr [21 x i16], ptr @char_range_s, i64 0, i64 %11
  %13 = load i16, ptr %12, align 4
  %14 = zext i16 %13 to i32
  %15 = icmp ugt i32 %14, %0
  br i1 %15, label %16, label %2

16:                                               ; preds = %2, %10, %3
  %.0 = phi i32 [ 0, %3 ], [ 1, %10 ], [ 0, %2 ]
  ret i32 %.0
}